SECTOR 0
Primary bootstrap cylinder: 406
000  000240  nop
002: 000432  br	70
004  000006  rtt
006: 000000  halt
010  000012  
012: 000000  halt
014  000000  halt
016: 000000  halt
020  000000  halt
022: 000000  halt
024  000000  halt
026: 000000  halt
030  000000  halt
032: 000000  halt
034  000000  halt
036: 000000  halt
040  000000  halt
042: 000000  halt
044  000000  halt
046: 000000  halt
050  000000  halt
052: 000000  halt
054  000000  halt
056: 000000  halt
060  000000  halt
062: 000000  halt
064  000000  halt
066: 000000  halt
070  012706  mov	$176650,sp
072: 076650  
074  012701  mov	$176700,r1
076: 176700  
100  012761  mov	$626,34(r1)
102: 000626  br	177560
104  000034  
106: 005037  clr	*$176676
110  076676  
112: 012761  mov	$175400,2(r1)
114  175400  
116: 000002  rti
120  012761  mov	$1000,4(r1)
122: 001000  bne	124
124  000004  iot
126: 004737  jsr	pc,*$224
130  000224  
132: 103401  bcs	136
134  000455  br	270
136: 000000  halt
140  012701  mov	$176700,r1
142: 176700  
144  013761  mov	*$176676,10(r1)
146: 076676  
150  000010  
152: 032711  bit	$4000,(r1)
154  004000  jsr	r0,r0
156: 001436  beq	254
160  016102  mov	12(r1),r2
162: 000012  
164  005102  com	r2
166: 042702  bic	$167077,r2
170  167077  sub	*1030(r0),*14151
172: 001030  bne	254
174  013761  mov	*$176674,34(r1)
176: 076674  
200  000034  
202: 013761  mov	*$176672,6(r1)
204  076672  
206: 000006  rtt
210  012761  mov	$176770,4(r1)
212: 076770  
214  000004  iot
216: 013761  mov	*$176670,2(r1)
220  076670  
222: 000002  rti
224  012711  mov	$71,(r1)
226: 000071  
230  032711  bit	$160200,(r1)
232: 060200  add	r2,r0
234  001775  beq	230
236: 032711  bit	$160000,(r1)
240  060000  add	r0,r0
242: 001004  bne	254
244  032761  bit	$0,10(r1)
246: 140000  bicb	r0,r0
250  000010  
252: 001404  beq	264
254  012700  mov	$32,r0
256: 100032  bpl	344
260  000261  scc
262: 000207  rts	pc
264  000241  ccc
266: 000207  rts	pc
270  005037  clr	*$176674
272: 076674  
274  012737  mov	$1,*$176672
276: 000001  wait
300  076672  
302: 012737  mov	$177400,*$176670
304  177400  
306: 076670  
310  004737  jsr	pc,*$140
312: 000140  jmp	-(r0)
314  103435  bcs	410
316: 012701  mov	$177312,r1
320  077312  sob
322: 012702  mov	$176652,r2
324  076652  
326: 012122  mov	(r1)+,(r2)+
330  020127  cmp	r1,$177326
332: 077326  sob
334  103774  bcs	326
336: 023727  cmp	*$176770,$5755
340  076770  
342: 105755  tstb	*-(r5)
344  001017  bne	404
346: 012701  mov	$177274,r1
350  077274  sob
352: 012702  mov	$1516,r2
354  001516  beq	612
356: 022122  cmp	(r1)+,(r2)+
360  001011  bne	404
362: 020127  cmp	r1,$177310
364  077310  sob
366: 103773  bcs	356
370  005737  tst	*$176652
372: 076652  
374  003403  ble	404
376: 005737  tst	*$176660
400  076660  
402: 003003  bgt	412
404  012700  mov	$21,r0
406: 100021  bpl	452
410  000000  halt
412: 012705  mov	$176716,r5
414  076716  
416: 012703  mov	$176724,r3
420  076724  
422: 012702  mov	$176660,r2
424  076660  
426: 012263  mov	(r2)+,10(r3)
430  000010  
432: 012263  mov	(r2)+,12(r3)
434  000012  
436: 011200  mov	(r2),r0
440  000300  swab	r0
442: 010063  mov	r0,22(r3)
444  000022  
446: 005063  clr	20(r3)
450  000020  
452: 010302  mov	r3,r2
454  062702  add	$40,r2
456: 000040  
460  005022  clr	(r2)+
462: 005012  clr	(r2)
464  012700  mov	$176724,r0
466: 076724  
470  004737  jsr	pc,*$1130
472: 001130  bne	754
474  103443  bcs	604
476: 012002  mov	(r0)+,r2
500  011001  mov	(r0),r1
502: 012704  mov	$1510,r4
504  001510  beq	726
506: 021214  cmp	(r2),(r4)
510  001027  bne	570
512: 026264  cmp	2(r2),2(r4)
514  000002  rti
516: 000002  rti
520  001023  bne	570
522: 026264  cmp	4(r2),4(r4)
524  000004  iot
526: 000004  iot
530  001017  bne	570
532: 010225  mov	r2,(r5)+
534  013725  mov	*$176674,(r5)+
536: 076674  
540  013725  mov	*$176672,(r5)+
542: 076672  
544  012705  mov	$176724,r5
546: 076724  
550  012703  mov	$20,r3
552: 000020  
554  012225  mov	(r2)+,(r5)+
556: 005303  dec	r3
560  001375  bne	554
562: 005025  clr	(r5)+
564  005025  clr	(r5)+
566: 000417  br	626
570  062702  add	$40,r2
572: 000040  
574  162701  sub	$40,r1
576: 000040  
600  101340  bhi	502
602: 000730  br	464
604  022700  cmp	$1,r0
606: 000001  wait
610  001003  bne	620
612: 012700  mov	$22,r0
614  100022  bpl	662
616: 000000  halt
620  012700  mov	$23,r0
622: 100023  bpl	672
624  000000  halt
626: 012700  mov	$176724,r0
630  076724  
632: 004737  jsr	pc,*$1130
634  001130  bne	1116
636: 103440  bcs	740
640  012037  mov	(r0)+,*$176706
642: 076706  
644  011037  mov	(r0),*$176704
646: 076704  
650  005002  clr	r2
652: 004737  jsr	pc,*$1020
654  001020  bne	716
656: 105300  decb	r0
660  001373  bne	650
662: 004737  jsr	pc,*$1020
664  001020  bne	726
666: 004737  jsr	pc,*$1100
670  001100  bne	1072
672: 010037  mov	r0,*$176700
674  076700  
676: 162737  sub	$6,*$176700
700  000006  rtt
702: 076700  
704  001422  beq	752
706: 004737  jsr	pc,*$1100
710  001100  bne	1112
712: 010005  mov	r0,r5
714  004737  jsr	pc,*$1020
716: 001020  bne	760
720  005337  dec	*$176700
722: 076700  
724  002010  bge	746
726: 105702  tstb	r2
730  001747  beq	650
732: 012700  mov	$24,r0
734  100024  bpl	1006
736: 000000  halt
740  012700  mov	$25,r0
742: 100025  bpl	1016
744  000000  halt
746: 110025  movb	r0,(r5)+
750  000761  br	714
752: 004737  jsr	pc,*$1100
754  001100  bne	1156
756: 010046  mov	r0,-(sp)
760  004737  jsr	pc,*$1020
762: 001020  bne	1024
764  105702  tstb	r2
766: 001361  bne	732
770  012600  mov	(sp)+,r0
772: 010037  mov	r0,*$176710
774  076710  
776: 001405  beq	1012
SECTOR 1
000  505755,,000000  000000,,000000  000000,,000000  000000,,000000
004  000000,,000000  000000,,000000  000000,,000000  000000,,000000
010  000000,,000000  000000,,000000  000000,,000000  000000,,000000
014  000000,,000000  000000,,000000  000000,,000000  000000,,000000
020  000000,,000000  000000,,000000  000000,,000000  000000,,000000
024  000000,,000000  000000,,000000  000000,,000000  000000,,000000
030  000000,,000000  000000,,000000  000000,,000000  000000,,000000
034  000000,,000000  000000,,000000  000000,,000000  000000,,000000
040  000000,,000000  000000,,000000  000000,,000000  000000,,000000
044  000000,,000000  000000,,000000  000000,,000000  000000,,000000
050  000000,,000000  000000,,000000  000000,,000000  000000,,000000
054  000000,,000000  000000,,000000  000000,,000000  000000,,000000
060  000000,,000000  046113,,042506  042104,,051503  020040,,020040
064  000003,,000626  000423,,000004  000014,,000000  000100,,000626
070  000006,,000001  177777,,000000  000000,,177777  000000,,000000
074  000000,,000000  000000,,000000  000000,,000000  000000,,000000
100  000000,,000000  000000,,000000  000000,,000000  000000,,000000
104  000000,,000000  000000,,000000  000000,,000000  000000,,000000
110  000000,,000000  000000,,000000  000000,,000000  000000,,000000
114  000000,,000000  000000,,000000  000000,,000000  000000,,000000
120  000000,,000000  000000,,000000  000000,,000000  000000,,000000
124  000000,,000000  000000,,000000  000000,,000000  000000,,000000
130  000000,,000000  000000,,000000  000000,,000000  000000,,000000
134  000000,,000000  000000,,000000  000000,,000000  000000,,000000
140  000000,,000000  000000,,000000  000000,,000000  000000,,000000
144  000000,,000000  000000,,000000  000000,,000000  000000,,000000
150  000000,,000000  000000,,000000  000000,,000000  000000,,000000
154  000000,,000000  000000,,000000  000000,,000000  000000,,000000
160  000000,,000000  000000,,000000  000000,,000000  000000,,000000
164  000000,,000000  000000,,000000  000000,,000000  000000,,000000
170  000000,,000400  000000,,000000  000000,,000000  000000,,000000
174  000000,,000000  000000,,000000  000000,,707070  000000,,000001
HOME BLOCK
Magic: HOM   
Directory: 046113042506, 042104051503, 020040020040
LH(64):      3
Index cylinder:    406
Index PBN:    275
Index NCB:      4
Directory cylinder:     12
Directory PBN:      0
Directory NCB:     64
Bit map cylinder:    406
Bit map PBN:      6
Bit map NCB:      1
Bad block PBN:  65535
Bad block NCB:      0
Extended home block PBN:      0
Extended home block NCB:      0
Function: 
Owner: 
SECTOR 10
PRIMARY BOOT
0000  000240  nop
0002: 000432  br	70
0004  000006  rtt
0006: 000000  halt
0010  000012  
0012: 000000  halt
0014  000000  halt
0016: 000000  halt
0020  000000  halt
0022: 000000  halt
0024  000000  halt
0026: 000000  halt
0030  000000  halt
0032: 000000  halt
0034  000000  halt
0036: 000000  halt
0040  000000  halt
0042: 000000  halt
0044  000000  halt
0046: 000000  halt
0050  000000  halt
0052: 000000  halt
0054  000000  halt
0056: 000000  halt
0060  000000  halt
0062: 000000  halt
0064  000000  halt
0066: 000000  halt
0070  012706  mov	$17552,sp
0072: 076650  
0074  012701  mov	$177560,r1
0076: 176700  
0100  012761  mov	$145,34(r1)
0102: 000626  br	177560
0104  000034  
0106: 005037  clr	*$176676
0110  076676  
0112: 012761  mov	$175400,2(r1)
0114  175400  
0116: 000002  rti
0120  012761  mov	$200,4(r1)
0122: 001000  bne	124
0124  000004  iot
0126: 004737  jsr	pc,*$224
0130  000224  
0132: 103401  bcs	136
0134  000455  br	270
0136: 000000  halt
0140  012701  mov	$177560,r1
0142: 176700  
0144  013761  mov	*$17557,10(r1)
0146: 076676  
0150  000010  
0152: 032711  bit	$4000,(r1)
0154  004000  jsr	r0,r0
0156: 001436  beq	254
0160  016102  mov	2(r1),r2
0162: 000012  
0164  005102  com	r2
0166: 042702  bic	$167077,r2
0170  167077  sub	*206(r0),*14151
0172: 001030  bne	254
0174  013761  mov	*$17557,34(r1)
0176: 076674  
0200  000034  
0202: 013761  mov	*$176672,6(r1)
0204  076672  
0206: 000006  rtt
0210  012761  mov	$17576,4(r1)
0212: 076770  
0214  000004  iot
0216: 013761  mov	*$176670,2(r1)
0220  076670  
0222: 000002  rti
0224  012711  mov	$16,(r1)
0226: 000071  
0230  032711  bit	$14040,(r1)
0232: 060200  add	r2,r0
0234  001775  beq	230
0236: 032711  bit	$160000,(r1)
0240  060000  add	r0,r0
0242: 001004  bne	254
0244  032761  bit	$170000,10(r1)
0246: 140000  bicb	r0,r0
0250  000010  
0252: 001404  beq	264
0254  012700  mov	$160006,r0
0256: 100032  bpl	344
0260  000261  scc
0262: 000207  rts	pc
0264  000241  ccc
0266: 000207  rts	pc
0270  005037  clr	*$17557
0272: 076674  
0274  012737  mov	$0,*$176672
0276: 000001  wait
0300  076672  
0302: 012737  mov	$177400,*$176670
0304  177400  
0306: 076670  
0310  004737  jsr	pc,*$30
0312: 000140  jmp	-(r0)
0314  103435  bcs	410
0316: 012701  mov	$177312,r1
0320  077312  sob
0322: 012702  mov	$176652,r2
0324  076652  
0326: 012122  mov	(r1)+,(r2)+
0330  020127  cmp	r1,$17665
0332: 077326  sob
0334  103774  bcs	326
0336: 023727  cmp	*$176770,$5755
0340  076770  
0342: 105755  tstb	*-(r5)
0344  001017  bne	404
0346: 012701  mov	$177274,r1
0350  077274  sob
0352: 012702  mov	$1516,r2
0354  001516  beq	612
0356: 022122  cmp	(r1)+,(r2)+
0360  001011  bne	404
0362: 020127  cmp	r1,$177310
0364  077310  sob
0366: 103773  bcs	356
0370  005737  tst	*$17552
0372: 076652  
0374  003403  ble	404
0376: 005737  tst	*$176660
0400  076660  
0402: 003003  bgt	412
0404  012700  mov	$160004,r0
0406: 100021  bpl	452
0410  000000  halt
0412: 012705  mov	$176716,r5
0414  076716  
0416: 012703  mov	$176724,r3
0420  076724  
0422: 012702  mov	$176660,r2
0424  076660  
0426: 012263  mov	(r2)+,10(r3)
0430  000010  
0432: 012263  mov	(r2)+,12(r3)
0434  000012  
0436: 011200  mov	(r2),r0
0440  000300  swab	r0
0442: 010063  mov	r0,22(r3)
0444  000022  
0446: 005063  clr	20(r3)
0450  000020  
0452: 010302  mov	r3,r2
0454  062702  add	$10,r2
0456: 000040  
0460  005022  clr	(r2)+
0462: 005012  clr	(r2)
0464  012700  mov	$17565,r0
0466: 076724  
0470  004737  jsr	pc,*$226
0472: 001130  bne	754
0474  103443  bcs	604
0476: 012002  mov	(r0)+,r2
0500  011001  mov	(r0),r1
0502: 012704  mov	$1510,r4
0504  001510  beq	726
0506: 021214  cmp	(r2),(r4)
0510  001027  bne	570
0512: 026264  cmp	2(r2),2(r4)
0514  000002  rti
0516: 000002  rti
0520  001023  bne	570
0522: 026264  cmp	4(r2),4(r4)
0524  000004  iot
0526: 000004  iot
0530  001017  bne	570
0532: 010225  mov	r2,(r5)+
0534  013725  mov	*$17557,(r5)+
0536: 076674  
0540  013725  mov	*$17556,(r5)+
0542: 076672  
0544  012705  mov	$17565,r5
0546: 076724  
0550  012703  mov	$4,r3
0552: 000020  
0554  012225  mov	(r2)+,(r5)+
0556: 005303  dec	r3
0560  001375  bne	554
0562: 005025  clr	(r5)+
0564  005025  clr	(r5)+
0566: 000417  br	626
0570  062702  add	$10,r2
0572: 000040  
0574  162701  sub	$10,r1
0576: 000040  
0600  101340  bhi	502
0602: 000730  br	464
0604  022700  cmp	$0,r0
0606: 000001  wait
0610  001003  bne	620
0612: 012700  mov	$22,r0
0614  100022  bpl	662
0616: 000000  halt
0620  012700  mov	$160004,r0
0622: 100023  bpl	672
0624  000000  halt
0626: 012700  mov	$176724,r0
0630  076724  
0632: 004737  jsr	pc,*$1130
0634  001130  bne	1116
0636: 103440  bcs	740
0640  012037  mov	(r0)+,*$17561
0642: 076706  
0644  011037  mov	(r0),*$17561
0646: 076704  
0650  005002  clr	r2
0652: 004737  jsr	pc,*$1020
0654  001020  bne	716
0656: 105300  decb	r0
0660  001373  bne	650
0662: 004737  jsr	pc,*$1020
0664  001020  bne	726
0666: 004737  jsr	pc,*$1100
0670  001100  bne	1072
0672: 010037  mov	r0,*$176700
0674  076700  
0676: 162737  sub	$6,*$176700
0700  000006  rtt
0702: 076700  
0704  001422  beq	752
0706: 004737  jsr	pc,*$1100
0710  001100  bne	1112
0712: 010005  mov	r0,r5
0714  004737  jsr	pc,*$204
0716: 001020  bne	760
0720  005337  dec	*$17560
0722: 076700  
0724  002010  bge	746
0726: 105702  tstb	r2
0730  001747  beq	650
0732: 012700  mov	$24,r0
0734  100024  bpl	1006
0736: 000000  halt
0740  012700  mov	$160005,r0
0742: 100025  bpl	1016
0744  000000  halt
0746: 110025  movb	r0,(r5)+
0750  000761  br	714
0752: 004737  jsr	pc,*$1100
0754  001100  bne	1156
0756: 010046  mov	r0,-(sp)
0760  004737  jsr	pc,*$204
0762: 001020  bne	1024
0764  105702  tstb	r2
0766: 001361  bne	732
0770  012600  mov	(sp)+,r0
0772: 010037  mov	r0,*$176710
0774  076710  
0776: 001405  beq	1012
1000  000240  nop
1002: 000432  br	70
1004  000006  rtt
1006: 000000  halt
1010  000012  
1012: 000000  halt
1014  000000  halt
1016: 000000  halt
1020  000000  halt
1022: 000000  halt
1024  000000  halt
1026: 000000  halt
1030  000000  halt
1032: 000000  halt
1034  000000  halt
1036: 000000  halt
1040  000000  halt
1042: 000000  halt
1044  000000  halt
1046: 000000  halt
1050  000000  halt
1052: 000000  halt
1054  000000  halt
1056: 000000  halt
1060  000000  halt
1062: 000000  halt
1064  000000  halt
1066: 000000  halt
1070  012706  mov	$17552,sp
1072: 076650  
1074  012701  mov	$177560,r1
1076: 176700  
1100  012761  mov	$145,34(r1)
1102: 000626  br	177560
1104  000034  
1106: 005037  clr	*$176676
1110  076676  
1112: 012761  mov	$175400,2(r1)
1114  175400  
1116: 000002  rti
1120  012761  mov	$200,4(r1)
1122: 001000  bne	124
1124  000004  iot
1126: 004737  jsr	pc,*$224
1130  000224  
1132: 103401  bcs	136
1134  000455  br	270
1136: 000000  halt
1140  012701  mov	$177560,r1
1142: 176700  
1144  013761  mov	*$17557,10(r1)
1146: 076676  
1150  000010  
1152: 032711  bit	$4000,(r1)
1154  004000  jsr	r0,r0
1156: 001436  beq	254
1160  016102  mov	2(r1),r2
1162: 000012  
1164  005102  com	r2
1166: 042702  bic	$167077,r2
1170  167077  sub	*206(r0),*14151
1172: 001030  bne	254
1174  013761  mov	*$17557,34(r1)
1176: 076674  
1200  000034  
1202: 013761  mov	*$176672,6(r1)
1204  076672  
1206: 000006  rtt
1210  012761  mov	$17576,4(r1)
1212: 076770  
1214  000004  iot
1216: 013761  mov	*$176670,2(r1)
1220  076670  
1222: 000002  rti
1224  012711  mov	$16,(r1)
1226: 000071  
1230  032711  bit	$14040,(r1)
1232: 060200  add	r2,r0
1234  001775  beq	230
1236: 032711  bit	$160000,(r1)
1240  060000  add	r0,r0
1242: 001004  bne	254
1244  032761  bit	$170000,10(r1)
1246: 140000  bicb	r0,r0
1250  000010  
1252: 001404  beq	264
1254  012700  mov	$160006,r0
1256: 100032  bpl	344
1260  000261  scc
1262: 000207  rts	pc
1264  000241  ccc
1266: 000207  rts	pc
1270  005037  clr	*$17557
1272: 076674  
1274  012737  mov	$0,*$176672
1276: 000001  wait
1300  076672  
1302: 012737  mov	$177400,*$176670
1304  177400  
1306: 076670  
1310  004737  jsr	pc,*$30
1312: 000140  jmp	-(r0)
1314  103435  bcs	410
1316: 012701  mov	$177312,r1
1320  077312  sob
1322: 012702  mov	$176652,r2
1324  076652  
1326: 012122  mov	(r1)+,(r2)+
1330  020127  cmp	r1,$17665
1332: 077326  sob
1334  103774  bcs	326
1336: 023727  cmp	*$176770,$5755
1340  076770  
1342: 105755  tstb	*-(r5)
1344  001017  bne	404
1346: 012701  mov	$177274,r1
1350  077274  sob
1352: 012702  mov	$1516,r2
1354  001516  beq	612
1356: 022122  cmp	(r1)+,(r2)+
1360  001011  bne	404
1362: 020127  cmp	r1,$177310
1364  077310  sob
1366: 103773  bcs	356
1370  005737  tst	*$17552
1372: 076652  
1374  003403  ble	404
1376: 005737  tst	*$176660
1400  076660  
1402: 003003  bgt	412
1404  012700  mov	$160004,r0
1406: 100021  bpl	452
1410  000000  halt
1412: 012705  mov	$176716,r5
1414  076716  
1416: 012703  mov	$176724,r3
1420  076724  
1422: 012702  mov	$176660,r2
1424  076660  
1426: 012263  mov	(r2)+,10(r3)
1430  000010  
1432: 012263  mov	(r2)+,12(r3)
1434  000012  
1436: 011200  mov	(r2),r0
1440  000300  swab	r0
1442: 010063  mov	r0,22(r3)
1444  000022  
1446: 005063  clr	20(r3)
1450  000020  
1452: 010302  mov	r3,r2
1454  062702  add	$10,r2
1456: 000040  
1460  005022  clr	(r2)+
1462: 005012  clr	(r2)
1464  012700  mov	$17565,r0
1466: 076724  
1470  004737  jsr	pc,*$226
1472: 001130  bne	754
1474  103443  bcs	604
1476: 012002  mov	(r0)+,r2
1500  011001  mov	(r0),r1
1502: 012704  mov	$1510,r4
1504  001510  beq	726
1506: 021214  cmp	(r2),(r4)
1510  001027  bne	570
1512: 026264  cmp	2(r2),2(r4)
1514  000002  rti
1516: 000002  rti
1520  001023  bne	570
1522: 026264  cmp	4(r2),4(r4)
1524  000004  iot
1526: 000004  iot
1530  001017  bne	570
1532: 010225  mov	r2,(r5)+
1534  013725  mov	*$17557,(r5)+
1536: 076674  
1540  013725  mov	*$17556,(r5)+
1542: 076672  
1544  012705  mov	$17565,r5
1546: 076724  
1550  012703  mov	$4,r3
1552: 000020  
1554  012225  mov	(r2)+,(r5)+
1556: 005303  dec	r3
1560  001375  bne	554
1562: 005025  clr	(r5)+
1564  005025  clr	(r5)+
1566: 000417  br	626
1570  062702  add	$10,r2
1572: 000040  
1574  162701  sub	$10,r1
1576: 000040  
1600  101340  bhi	502
1602: 000730  br	464
1604  022700  cmp	$0,r0
1606: 000001  wait
1610  001003  bne	620
1612: 012700  mov	$22,r0
1614  100022  bpl	662
1616: 000000  halt
1620  012700  mov	$160004,r0
1622: 100023  bpl	672
1624  000000  halt
1626: 012700  mov	$176724,r0
1630  076724  
1632: 004737  jsr	pc,*$1130
1634  001130  bne	1116
1636: 103440  bcs	740
1640  012037  mov	(r0)+,*$17561
1642: 076706  
1644  011037  mov	(r0),*$17561
1646: 076704  
1650  005002  clr	r2
1652: 004737  jsr	pc,*$1020
1654  001020  bne	716
1656: 105300  decb	r0
1660  001373  bne	650
1662: 004737  jsr	pc,*$1020
1664  001020  bne	726
1666: 004737  jsr	pc,*$1100
1670  001100  bne	1072
1672: 010037  mov	r0,*$176700
1674  076700  
1676: 162737  sub	$6,*$176700
1700  000006  rtt
1702: 076700  
1704  001422  beq	752
1706: 004737  jsr	pc,*$1100
1710  001100  bne	1112
1712: 010005  mov	r0,r5
1714  004737  jsr	pc,*$204
1716: 001020  bne	760
1720  005337  dec	*$17560
1722: 076700  
1724  002010  bge	746
1726: 105702  tstb	r2
1730  001747  beq	650
1732: 012700  mov	$24,r0
1734  100024  bpl	1006
1736: 000000  halt
1740  012700  mov	$160005,r0
1742: 100025  bpl	1016
1744  000000  halt
1746: 110025  movb	r0,(r5)+
1750  000761  br	714
1752: 004737  jsr	pc,*$1100
1754  001100  bne	1156
1756: 010046  mov	r0,-(sp)
1760  004737  jsr	pc,*$204
1762: 001020  bne	1024
1764  105702  tstb	r2
1766: 001361  bne	732
1770  012600  mov	(sp)+,r0
1772: 010037  mov	r0,*$176710
1774  076710  
1776: 001405  beq	1012
DIRECTORY
File: A1     A11  @000000000001  538/768
File: A10    A11  @000000000004  416/512
File: A11    A11  @000000000006  1586/1792
File: A12    A11  @000000000015  160/256
File: A13    A11  @000000000016  160/256
File: A14    A11  @000000000017  508/512
File: A15    A11  @000000000021  1764/1792
File: A16    A11  @000000000404  116/2048
File: A17    A11  @000000000414  48/2048
File: A18    A11  @000000001000  1234/2048
File: A19    A11  @000000001010  320/2048
File: A2     A11  @000000001020  670/2048
File: A20    A11  @000000001404  130/2048
File: A21    A11  @000000001414  114/2048
File: A22    A11  @000000002000  194/2048
File: A23    A11  @000000002010  290/2048
File: A24    A11  @000000002020  88/2048
File: A25    A11  @000000002404  564/2048
File: A26    A11  @000000002414  194/2048
File: A27    A11  @000000003000  60/2048
File: A3     A11  @000000003010  1330/2048
File: A4     A11  @000000003020  2234/2304
File: A5     A11  @000000003405  1330/2048
File: A6     A11  @000000003415  94/256
File: A7     A11  @000000003416  290/512
File: A8     A11  @000000003420  98/256
File: A9     A11  @000000003421  96/256
File: CONEX  A11  @000000000000  14538/20480
File: BT     X1   @000000003422  30/256
File: BT     X4   @000000003423  30/256
File: C0     CCL  @000000004000  46/256
File: CM     CCL  @000000004001  34/256
File: CMFAB0 BIC  @000000004002  2638/2816
File: CSHCNF CCL  @000000004015  64/256
File: CSHREF A10  @000000004016  1168/1280
File: D8KA0  BIN  @000000004023  1530/1536
File: DBQEAB BIN  @000000000000  15300/16384
File: DDDFA  A10  @000000000000  72264/92160
File: DDDLA  A10  @000000000000  38912/49152
File: DDDLB  A10  @000000002000  18432/24576
File: DDDLG  A10  @000000000000  26624/34816
File: DDLAA  A10  @000000000000  28672/36864
File: DDMMD  A10  @000000000000  22528/28672
File: DDMME  A10  @000000000000  10240/14336
File: DDMMF  A10  @000000000000  10240/14336
File: DDMMG  A10  @000000000000  20480/26624
File: DDQCB  A10  @000000000000  69632/88064
File: DDRHA  A10  @000000000414  53248/67584
File: DDTMD  A10  @000000004020  20480/26624
File: DDRPG  A10  @000000000000  90404/92160
File: DDTME  A10  @000000001404  40960/51200
File: DDTMF  A10  @000000000000  28672/36864
File: DDTMH  A10  @000000000000  38912/38912
File: DEKAA  A10  @000000002404  12288/12288
File: DEKAB  A10  @000000003010  14336/14336
File: DEKAC  A10  @000000003020  10240/10240
File: DEKAD  A10  @000000007020  12288/12288
File: DEKAE  A10  @000000000414  10240/10240
File: DEKAF  A10  @000000001020  12288/12288
File: DEKAG  A10  @000000000010  6144/6144
File: DEKAI  A10  @000000000000  24576/24576
File: DEKAJ  A10  @000000000000  18432/18432
File: DEKAK  A10  @000000003020  32768/32768
File: DEKAL  A10  @000000000000  34816/34816
File: DEKAM  A10  @000000000000  22528/22528
File: DEKBA  A10  @000000000000  20480/20480
File: DEKBB  A10  @000000000000  20480/20480
File: DEKBC  A10  @000000000000  20480/20480
File: DEKBD  A10  @000000000000  10240/10240
File: DEKCA  A10  @000000000000  20480/20480
File: DEKCB  A10  @000000000000  10240/10240
File: DEKCC  A10  @000000000000  18432/18432
File: DEKCD  A10  @000000000000  34816/34816
File: DEKCE  A10  @000000000000  26624/26624
File: DFDTE  A10  @000000002020  26624/26624
File: DZDHA  A11  @000000005000  8470/10240
File: IOELEV A11  @000000005010  12766/14336
File: NTSDD2 CMD  @000000001406  88/256
File: DFKAC  A10  @000000000000  63440/63488
File: DFKAD  A10  @000000000000  21060/22528
File: DFKAH  A10  @000000000000  24238/24576
File: DFKBA  A10  @000000000000  82104/83968
File: DFKDA  A10  @000000000000  68458/69632
File: DFKDC  A10  @000000000000  9494/10240
File: DFKEA  A10  @000000000000  18800/20480
File: DFKEB  A10  @000000000000  7530/8192
File: DFKFB  A10  @000000000000  4640/6144
File: DFKFD  A10  @000000000000  14224/14336
File: DFQAAA BIN  @000000000000  11730/12288
File: DGDTE  A11  @000000000000  19800/20480
File: DGKAA  A11  @000000000000  18816/22528
File: DGKAB  A11  @000000000000  23978/26624
File: DGKBA  A11  @000000000000  21938/22528
File: DGKBB  A11  @000000000000  24546/24576
File: DGKBC  A11  @000000000000  17544/20480
File: DGKCA  A11  @000000000000  17924/20480
File: DGMCA  A11  @000000000000  26040/26624
File: DIACON HLP  @000000004405  570/768
File: DIAMON A10  @000000000000  15046/16384
File: DIAMON DOC  @000000000000  7004/8192
File: DIAMON TXT  @000000000000  7766/8192
File: DS1017 A11  @000000000000  4838/6144
File: DS1257 A11  @000000000000  4236/6144
File: DS1677 A11  @000000000000  5156/6144
File: DXDLC  BIN  @000000004410  3258/3328
File: DZBMDF BIN  @000000005001  4080/4096
File: DZDLCA BIN  @000000005021  4080/4096
File: DZKWAD BIN  @000000000001  2806/2816
File: DZQMCB BIN  @000000000000  6630/8192
File: DZRPSD BIN  @000000000000  14280/14336
File: DZRPTD BIN  @000000000000  13006/14336
File: DZTCBC BIN  @000000000000  8160/8192
File: EBOX   RAM  @000000010020  6324/8192
File: KLBOOT HLP  @000000005415  354/512
File: KLCCL  HLP  @000000000014  1308/1536
File: KLCK   CMD  @000000005417  110/256
File: KLCPUO CMD  @000000005420  264/512
File: KLCPU1 CMD  @000000005422  90/256
File: KLCPU2 CMD  @000000005423  46/256
File: KLCPU3 CMD  @000000000022  36/256
File: KLDCP  DOC  @000000000000  63914/65536
File: KLDCP  HLP  @000000000000  5356/6144
File: KLDDT  A10  @000000000000  10858/14336
File: KLDIAG CMD  @000000000023  160/256
File: KLFCP1 CMD  @000000000400  144/256
File: KLFEP  CMD  @000000000000  5516/6144
File: KLHUNG CMD  @000000000401  434/512
File: KLLD   CCL  @000000000403  48/256
File: KLOPR  HLP  @000000000000  4284/6144
File: KLPROC CMD  @000000000404  274/512
File: KLUSR  CMD  @000000000406  220/256
File: MBOX   RAM  @000000000000  14106/14336
File: MICLD  CCL  @000000000407  16/256
File: REF01  A10  @000000000410  1140/1280
File: REF02  A10  @000000000415  1106/1280
File: REF13  A10  @000000000422  1178/1280
File: REF23  A10  @000000001003  1146/1280
File: ST     CCL  @000000001010  78/256
File: STE    CCL  @000000001011  78/256
File: STN    CCL  @000000001012  78/256
File: SUBRTN A10  @000000000000  17244/18432
File: TRACE  A11  @000000003000  26954/28672
File: TRACE  HLP  @000000002404  816/1024
File: U      RAM  @000000000000  14104/14336
File: UPD1   BIN  @000000000000  4336/6144
File: UPD2   BIN  @000000000000  6630/8192
File: WRMEM  CCL  @000000001016  118/256
File: X1     CCL  @000000001017  274/512
File: X2     CCL  @000000001021  274/512
File: X4     CCL  @000000001023  274/512
File: YPTC   BIN  @000000001401  2040/2048
File: ZDHAA1 BIC  @000000001411  3020/3072
File: ZDHBA1 BIC  @000000002001  1872/2048
File: ZDHCA2 BIC  @000000002011  2762/2816
File: ZDHDB0 BIC  @000000002400  2300/2304
File: ZDHEA2 BIC  @000000002411  2568/2816
File: ZDHFA1 BIC  @000000003000  2862/3072
File: ZDHGB0 BIC  @000000003014  2012/2048
File: ZDHHB0 BIC  @000000003400  2382/2560
File: ZDHJB0 BIC  @000000003412  1212/1280
File: ZDHLA0 BIN  @000000003417  1020/1024
File: ZDMDA0 BIC  @000000003423  2698/2816
File: ZDQAA0 BIN  @000000000000  4590/6144
File: ZDQCA0 BIN  @000000000000  4336/6144
File: ZDQDA0 BIN  @000000000000  4336/6144
File: ZDQEA0 BIN  @000000000000  4336/6144
File: ZDQGA0 BIN  @000000004012  1530/1536
File: ZITAB0 BIC  @000000004020  1334/1536
File: ZKAQB0 BIC  @000000004402  466/512
File: ZKLAD0 BIC  @000000004404  2288/2304
File: ZKWAB0 BIC  @000000004415  382/512
File: ZQMAB0 BIC  @000000004417  1946/2048
File: ZQMBG0 BIC  @000000005003  2476/2560
File: ZRPSC0 BIC  @000000000000  9074/10240
File: ZRPTC0 BIC  @000000000000  8284/10240
File: ZTCBA0 BIC  @000000005015  2470/2560
File: A10M1  TIC  @000000005403  54/256
File: A10M2  TIC  @000000005404  54/256
File: A10M4  TIC  @000000005405  128/256
File: A10M5  TIC  @000000005406  110/256
File: A16M1  TIC  @000000005407  1068/1280
File: A16M2  TIC  @000000005414  1068/1280
File: A16M3  TIC  @000000000001  1068/1280
File: A16M4  TIC  @000000000006  1066/1280
File: A18M1  TIC  @000000000013  750/2048
File: A19M1  TIC  @000000000023  854/1024
File: A19M13 TIC  @000000000403  854/1024
File: A19M14 TIC  @000000005421  58/256
File: A19M15 TIC  @000000005422  164/256
File: A19M19 TIC  @000000000407  854/1024
File: A19M2  TIC  @000000005423  58/256
File: A19M20 TIC  @000000000413  58/256
File: A19M21 TIC  @000000000414  164/256
File: A19M3  TIC  @000000000415  160/256
File: A19M7  TIC  @000000000416  854/1024
File: A19M8  TIC  @000000000422  58/256
File: A19M9  TIC  @000000000423  164/256
File: A20M1  TIC  @000000001000  164/256
File: A21M1  TIC  @000000001001  230/1024
File: A21M2  TIC  @000000001005  278/512
File: A21M3  TIC  @000000001007  194/256
File: A23M1  TIC  @000000001010  1374/1536
File: A23M2  TIC  @000000001016  164/256
File: A23M3  TIC  @000000001017  54/256
File: A23M4  TIC  @000000001020  56/256
File: A23M5  TIC  @000000001021  54/256
File: A23M6  TIC  @000000001022  200/256
File: A23M7  TIC  @000000001023  200/256
File: A23M8  TIC  @000000001400  164/256
File: A23M9  TIC  @000000001401  120/256
File: A6M1   TIC  @000000001402  130/256
File: A7M1   TIC  @000000001403  56/1792
File: A7M2   TIC  @000000001412  56/256
File: A7M3   TIC  @000000001413  126/1792
File: K13M1  TIC  @000000001422  1180/1536
File: K13M2  TIC  @000000002004  56/256
File: K13M3  TIC  @000000002005  86/256
File: K14M1  TIC  @000000002006  186/256
File: K14M4  TIC  @000000002007  214/256
File: K18M1  TIC  @000000002010  1180/1536
File: K18M2  TIC  @000000002016  56/256
File: K18M3  TIC  @000000002017  86/256
File: K19M1  TIC  @000000002020  186/256
File: K19M4  TIC  @000000002021  214/256
File: K23M1  TIC  @000000002022  84/256
File: K23M2  TIC  @000000002023  84/256
File: K26M1  TIC  @000000002400  210/256
File: K26M10 TIC  @000000002401  210/256
File: K26M11 TIC  @000000002402  216/512
File: K26M12 TIC  @000000002404  468/512
File: K26M2  TIC  @000000002406  218/512
File: K26M3  TIC  @000000002410  474/512
File: K26M4  TIC  @000000002412  210/256
File: K26M5  TIC  @000000002413  218/512
File: K26M6  TIC  @000000002415  474/512
File: K26M7  TIC  @000000002417  210/256
File: K26M8  TIC  @000000002420  218/512
File: K26M9  TIC  @000000002422  474/512
File: K27M1  TIC  @000000003000  84/256
File: K27M2  TIC  @000000003001  84/256
File: K2M1   TIC  @000000003002  210/256
File: K30M1  TIC  @000000003003  210/256
File: K30M10 TIC  @000000003004  210/256
File: K30M11 TIC  @000000003005  216/512
File: K30M12 TIC  @000000003007  468/512
File: K30M2  TIC  @000000003011  218/512
File: K30M3  TIC  @000000003013  474/512
File: K30M4  TIC  @000000003015  210/256
File: K30M5  TIC  @000000003016  218/512
File: K30M6  TIC  @000000003020  474/512
File: K30M7  TIC  @000000003022  210/256
File: K30M8  TIC  @000000003023  218/512
File: K30M9  TIC  @000000003401  474/512
File: K31M1  TIC  @000000003403  84/256
File: K31M2  TIC  @000000003404  84/256
File: K34M1  TIC  @000000003405  210/256
File: K34M10 TIC  @000000003406  210/256
File: K34M11 TIC  @000000003407  216/512
File: K34M12 TIC  @000000003411  468/512
File: K34M2  TIC  @000000003413  218/512
File: K34M3  TIC  @000000003415  474/512
File: K34M4  TIC  @000000003417  210/256
File: K34M5  TIC  @000000003420  218/512
File: K34M6  TIC  @000000003422  474/512
File: K34M7  TIC  @000000004000  210/256
File: K34M8  TIC  @000000004001  218/512
File: K34M9  TIC  @000000004003  474/512
File: K35M1  TIC  @000000004005  84/256
File: K35M2  TIC  @000000004006  84/256
File: K38M1  TIC  @000000004007  210/256
File: K38M10 TIC  @000000004010  210/256
File: K38M11 TIC  @000000004011  216/512
File: K38M12 TIC  @000000004013  468/512
File: K38M2  TIC  @000000004015  218/512
File: K38M3  TIC  @000000004017  474/512
File: K38M4  TIC  @000000004021  210/256
File: K38M5  TIC  @000000004022  218/512
File: K38M6  TIC  @000000004400  474/512
File: K38M7  TIC  @000000004402  210/256
File: K38M8  TIC  @000000004403  218/512
File: K38M9  TIC  @000000004405  474/512
File: K3M1   TIC  @000000004407  1180/1536
File: K3M2   TIC  @000000004415  56/256
File: K3M3   TIC  @000000004416  84/256
File: K41M1  TIC  @000000004417  120/256
File: K41M2  TIC  @000000004420  216/256
File: K41M3  TIC  @000000004421  318/512
File: K41M4  TIC  @000000004423  120/256
File: K42M1  TIC  @000000005000  120/256
File: K42M2  TIC  @000000005001  254/512
File: K42M3  TIC  @000000005003  344/512
File: K42M4  TIC  @000000005005  284/512
File: K42M5  TIC  @000000005007  154/256
File: K42M6  TIC  @000000005010  56/256
File: K42M7  TIC  @000000005011  254/512
File: K42M8  TIC  @000000005013  188/256
File: K42M9  TIC  @000000005014  188/256
File: K43M1  TIC  @000000005015  86/256
File: K43M2  TIC  @000000005016  154/256
File: K43M3  TIC  @000000005017  154/256
File: K43M4  TIC  @000000005020  120/256
File: K44M1  TIC  @000000005021  120/256
File: K44M2  TIC  @000000005022  278/512
File: K45M1  TIC  @000000005400  120/256
File: K45M2  TIC  @000000005401  154/256
File: K45M3  TIC  @000000005402  56/256
File: K45M4  TIC  @000000005403  318/512
File: K45M5  TIC  @000000005405  188/256
File: K49M1  TIC  @000000005406  386/512
File: K49M2  TIC  @000000005410  120/512
File: K4M1   TIC  @000000005412  184/256
File: K4M4   TIC  @000000005413  214/256
File: K8M1   TIC  @000000005414  1180/1536
File: K8M2   TIC  @000000005422  56/256
File: K8M3   TIC  @000000005423  84/256
File: K9M1   TIC  @000000000001  184/256
File: K9M4   TIC  @000000000002  214/256
File: P10M1  TIC  @000000000003  84/256
File: P10M12 TIC  @000000000004  250/512
File: P10M3  TIC  @000000000006  84/256
File: P10M7  TIC  @000000000007  150/256
File: P2M1   TIC  @000000000010  1014/1024
File: P2M2   TIC  @000000000014  358/512
File: P2M3   TIC  @000000000016  40/256
File: P2M4   TIC  @000000000017  254/256
File: P3M1   TIC  @000000000020  958/1024
File: P3M2   TIC  @000000000400  384/512
File: P3M3   TIC  @000000000402  48/256
File: P3M4   TIC  @000000000403  250/512
File: P4M1   TIC  @000000000405  84/256
File: P4M2   TIC  @000000000406  84/256
File: P5M1   TIC  @000000000407  84/256
File: P5M2   TIC  @000000000410  56/256
File: P8M1   TIC  @000000000411  1736/1792
File: P9M1   TIC  @000000000420  1600/1792
File: P9M12  TIC  @000000001003  250/256
File: P9M3   TIC  @000000001004  74/256
File: P9M7   TIC  @000000001005  146/256
File: OIOELV A11  @000000004020  12624/14336
File: KLDCPU A11  @000000001020  18860/20480
File: OOU1   RAM  @000000001010  12098/12288
File: MAGDMP CMD  @000000001006  8/256
File: MAGDMP CCL  @000000001007  118/256
File: IOELEV OLD  @000000006414  12714/14336
File: KLINIT CMD  @000000001011  46/256
File: USAVE  RAM  @000000000000  14158/14336
File: U1SAVE RAM  @000000000000  12100/12288
File: NTSDD0 CCL  @000000001012  284/512
File: NTSDD1 CCL  @000000001014  284/512
File: NTSDD2 CCL  @000000001016  286/512
File: KLINI2 CMD  @000000001020  48/256
File: OKLDCU A11  @000000000000  1774/16384
File: K47M1  TIC  @000000001021  254/512
File: DCPUDB A11  @000000000000  20480/20480
File: BT     CMD  @000000001400  86/256
File: DFKCA  A10  @000000001023  68/256
File: DFKCA0 A10  @000000000000  49558/51200
File: DFKCA1 A10  @000000000000  49618/51200
File: OU1    RAM  @000000001404  12096/12288
File: ULISP  RAM  @000000007010  12700/14336
File: NKLDCU A11  @000000004000  16110/16384
File: OKLDCP BIN  @000000006404  13602/14336
File: DZMMD  A11  @000000001401  1164/1280
File: DZMMF  A11  @000000001406  1364/1536
File: DZMMH  A11  @000000001414  318/512
File: DZMMI  A11  @000000001416  1248/1280
File: DZQMB  A11  @000000006414  6500/8192
File: KLDCP  BIN  @000000004000  13632/14336
File: TCMON  ABS  @000000007020  6402/10240
File: DSKDMP A10  @000000001423  288/512
File: DDCOLD A10  @000000000000  7680/8192
File: BT4    CMD  @000000002001  86/256
File: BT2    CMD  @000000002002  86/256
File: BT1    CMD  @000000002003  86/256
File: DZDHB  A11  @000000010020  4930/6144
File: DZDHC  A11  @000000007414  7158/8192
File: DZDHD  A11  @000000006414  5976/6144
File: DZDHE  A11  @000000010404  7130/8192
File: DZDHG  A11  @000000003000  5444/6144
File: DZDHF  A11  @000000005010  7728/8192
File: DZDHH  A11  @000000005414  6366/8192
File: DZDHI  A11  @000000006000  5376/6144
File: DZDHJ  A11  @000000002004  3266/3328
File: DZDHK  A11  @000000007414  7308/8192
File: DZDHN  A11  @000000001010  10566/12288
File: DZDHM  A11  @000000005010  13030/14336
File: KLCPU  CMD  @000000002021  200/256
File: XTECO  BIN  @000000006000  6886/8192
File: DDDLH  A10  @000000000000  12288/16384
File: CONEX  HLP  @000000002022  1310/1536
File: A18M2  TIC  @000000002410  514/768
File: A19M4  TIC  @000000002413  128/256
File: A19M10 TIC  @000000002414  128/256
File: E1     A11  @000000002415  2360/2560
File: E2     A11  @000000003003  298/512
File: E3     A11  @000000003005  1734/1792
File: E4     A11  @000000003014  3658/3840
File: E5     A11  @000000003407  2084/2304
File: E6     A11  @000000003420  1016/1024
File: E7     A11  @000000004000  516/768
File: E8     A11  @000000004003  1054/1280
File: E9     A11  @000000004010  190/256
File: E10    A11  @000000004011  470/512
File: E11    A11  @000000004013  1684/1792
File: E12    A11  @000000004022  2836/3072
File: E13    A11  @000000004412  1448/1536
File: E14    A11  @000000004420  1960/2048
File: E15    A11  @000000005004  394/512
File: E16    A11  @000000007404  4148/6144
File: E17    A11  @000000005006  1110/1280
File: E18    A11  @000000005013  1810/2048
File: E19    A11  @000000005023  370/512
File: E20    A11  @000000005401  758/768
File: E21    A11  @000000005404  2766/2816
File: E22    A11  @000000005417  940/1024
File: E23    A11  @000000003001  2110/2304
File: E24    A11  @000000003012  3810/3840
File: E25    A11  @000000003405  1578/1792
File: E26    A11  @000000003414  3028/3072
File: E27    A11  @000000004004  2966/3072
File: E28    A11  @000000004020  2086/2304
File: E29    A11  @000000004405  3470/3584
File: E30    A11  @000000004423  3148/3328
File: E31    A11  @000000005014  1890/2048
File: E32    A11  @000000005400  2114/2304
File: E33    A11  @000000005411  3228/3328
File: E34    A11  @000000006002  440/512
File: E35    A11  @000000006004  610/768
File: E36    A11  @000000006007  1074/1280
File: E37    A11  @000000006014  936/1024
File: E38    A11  @000000006020  494/512
File: F1     A11  @000000006022  1244/1280
File: F2     A11  @000000006403  866/1024
File: F3     A11  @000000006407  1004/1024
File: F4     A11  @000000006413  1368/1536
File: F5     A11  @000000002007  1080/1280
File: F6     A11  @000000002014  506/512
File: F7     A11  @000000002016  1056/1280
File: F8     A11  @000000002023  1024/1024
File: F9     A11  @000000002403  826/1024
File: F10    A11  @000000002407  318/512
File: F11    A11  @000000002411  548/768
File: F12    A11  @000000002414  1076/1280
File: F13    A11  @000000002421  590/768
File: F14    A11  @000000003000  426/512
File: F15    A11  @000000003002  440/512
File: F16    A11  @000000003004  1308/1536
File: F17    A11  @000000003012  1450/1536
File: F18    A11  @000000003020  1784/1792
File: F19    A11  @000000003403  2256/2304
File: F20    A11  @000000003414  1380/1536
File: F21    A11  @000000003422  718/768
File: F22    A11  @000000004001  1906/2048
File: F23    A11  @000000004011  2214/2304
File: F24    A11  @000000004022  1114/1280
File: F25    A11  @000000004403  706/768
File: F26    A11  @000000004406  416/512
File: F27    A11  @000000004410  466/512
File: F28    A11  @000000004412  506/512
File: F29    A11  @000000004414  654/768
File: F30    A11  @000000004417  458/512
File: F31    A11  @000000004421  420/512
File: F32    A11  @000000004423  354/512
File: F33    A11  @000000005001  620/768
File: F34    A11  @000000005004  954/1024
File: F35    A11  @000000005010  1048/1280
File: F36    A11  @000000005015  1346/1536
File: F37    A11  @000000005023  976/1024
File: F38    A11  @000000005403  526/768
File: M1     A11  @000000010414  4190/6144
File: M2     A11  @000000002406  366/512
File: M3     A11  @000000002410  346/512
File: M4     A11  @000000002412  388/512
File: M5     A11  @000000002414  418/512
File: M6     A11  @000000002416  360/512
File: M7     A11  @000000002420  348/512
File: M8     A11  @000000002422  1604/1792
File: M9     A11  @000000003005  1446/1536
File: M10    A11  @000000003013  1104/1280
File: M13    A11  @000000003020  1266/1280
File: M14    A11  @000000003401  486/512
File: M15    A11  @000000003403  486/512
File: M16    A11  @000000003405  680/768
File: M18    A11  @000000003410  468/512
File: M19    A11  @000000003412  514/768
File: M20    A11  @000000003415  568/768
File: M21    A11  @000000003420  568/768
File: M23    A11  @000000005423  230/256
File: M24    A11  @000000005406  224/256
File: M25    A11  @000000005407  226/256
File: M26    A11  @000000005410  548/768
File: M27    A11  @000000005413  1540/1792
File: M28    A11  @000000005422  998/1024
File: M29    A11  @000000006002  618/768
File: M30    A11  @000000006005  820/1024
File: M31    A11  @000000006011  680/768
File: M32    A11  @000000006014  546/768
File: M33    A11  @000000000011  494/512
File: M34    A11  @000000000013  380/512
File: M35    A11  @000000000015  280/512
File: M36    A11  @000000000017  450/512
File: D1     A11  @000000004417  146/256
File: D2     A11  @000000004420  310/512
File: D3     A11  @000000004422  114/256
File: D4     A11  @000000004423  158/256
File: D5     A11  @000000005000  174/256
File: D6     A11  @000000005001  320/512
File: D7     A11  @000000005003  736/768
File: D8     A11  @000000000021  628/768
File: D9     A11  @000000000400  400/512
File: D10    A11  @000000006017  230/256
File: D11    A11  @000000000402  150/256
File: D12    A11  @000000000403  1194/1280
File: D13    A11  @000000000410  230/256
File: D14    A11  @000000000411  314/512
File: D15    A11  @000000000413  306/512
File: D16    A11  @000000000415  1200/1280
File: D17    A11  @000000000422  118/256
File: D18    A11  @000000000423  974/1024
File: D19    A11  @000000001003  356/512
File: D20    A11  @000000001005  146/256
File: D21    A11  @000000001006  178/256
File: D22    A11  @000000001007  1184/1280
File: D23    A11  @000000001014  460/512
File: D24    A11  @000000001016  160/256
File: D25    A11  @000000001017  296/512
File: D26    A11  @000000001021  1288/1536
File: D27    A11  @000000001403  284/512
File: U1     RAM  @000000007414  12198/14336
File: MAGMON A10  @000000006020  14564/16384
File: DFRHB  A10  @000000001404  32536/32768
File: A19M16 TIC  @000000006017  128/256
File: A19M22 TIC  @000000006020  128/256
File: A20M2  TIC  @000000006021  56/256
File: C4C2   TIC  @000000006022  1218/1280
File: C4C12  TIC  @000000006403  468/512
File: C4C22  TIC  @000000006405  466/512
File: C4C32  TIC  @000000006407  466/512
File: C4C42  TIC  @000000006411  476/512
File: C4C52  TIC  @000000006413  474/512
File: C4C62  TIC  @000000006415  474/512
File: C4C72  TIC  @000000006417  468/512
File: C5C2   TIC  @000000006421  126/256
File: C5C3   TIC  @000000006422  334/512
File: C9C2   TIC  @000000007000  1190/1280
File: C9C12  TIC  @000000007005  468/512
File: C9C22  TIC  @000000000021  464/512
File: C9C32  TIC  @000000000023  464/512
File: C9C42  TIC  @000000000401  460/512
File: C9C52  TIC  @000000000403  466/512
File: C9C62  TIC  @000000000405  458/512
File: C9C72  TIC  @000000000407  444/512
File: C9C4   TIC  @000000007007  126/256
File: C9C15  TIC  @000000000411  84/256
File: C9C25  TIC  @000000000412  84/256
File: C9C35  TIC  @000000000413  84/256
File: C9C45  TIC  @000000000414  86/256
File: C9C55  TIC  @000000000415  86/256
File: C9C65  TIC  @000000000416  84/256
File: C9C75  TIC  @000000000417  84/256
File: C15C1  TIC  @000000000420  260/512
File: C15C11 TIC  @000000000422  254/256
File: C15C21 TIC  @000000000423  248/256
File: C15C31 TIC  @000000001000  248/256
File: C15C41 TIC  @000000001001  258/512
File: C15C51 TIC  @000000001003  258/512
File: C15C61 TIC  @000000001005  254/256
File: C15C71 TIC  @000000001006  248/256
File: C17C1  TIC  @000000001007  404/512
File: C17C2  TIC  @000000001011  364/512
File: C17C3  TIC  @000000001013  108/256
File: C17C11 TIC  @000000001014  374/512
File: C17C12 TIC  @000000001016  356/512
File: C17C13 TIC  @000000001020  98/256
File: C17C21 TIC  @000000001021  374/512
File: C17C22 TIC  @000000001023  354/512
File: C17C23 TIC  @000000001401  104/256
File: C17C31 TIC  @000000001402  376/512
File: C17C32 TIC  @000000001404  354/512
File: C17C33 TIC  @000000001406  100/256
File: C17C41 TIC  @000000001407  384/512
File: C17C51 TIC  @000000001411  380/512
File: C17C61 TIC  @000000001413  380/512
File: C17C71 TIC  @000000001415  384/512
File: C17C42 TIC  @000000001417  364/512
File: C17C52 TIC  @000000001421  360/512
File: C17C62 TIC  @000000001423  354/512
File: C17C72 TIC  @000000002001  350/512
File: C17C43 TIC  @000000002003  100/256
File: C17C53 TIC  @000000002004  100/256
File: C17C63 TIC  @000000002005  96/256
File: C17C73 TIC  @000000002006  98/256
File: NTSDDT CMD  @000000001405  18/256
